target datalayout = "e-m:e-p270:32:32-p271:32:32-p272:64:64-i64:64-i128:128-f80:128-n8:16:32:64-S128"
target triple = "x86_64-pc-linux-gnu"

%struct.AVChannelLayout = type { i32, i32, %union.anon, ptr }
%union.anon = type { i64 }
%struct.AACDecContext = type { ptr, ptr, %struct.AACDecDSP, %struct.AACDecProc, ptr, i32, %struct.DynamicRangeControl, [4 x [64 x ptr]], [4 x [64 x ptr]], i32, i32, [8 x i8], %union.anon.0, %union.anon.1, ptr, ptr, ptr, ptr, ptr, ptr, ptr, ptr, ptr, ptr, ptr, ptr, ptr, ptr, ptr, ptr, ptr, ptr, %union.anon.2, i32, [64 x ptr], i32, i32, i32, [2 x %struct.OutputConfiguration], i32, i32, i32, i32, i32, i32, [8 x i8] }
%struct.AACDecDSP = type { ptr, ptr, ptr, ptr, ptr, ptr, ptr, ptr, ptr, ptr, ptr, ptr, ptr, ptr, ptr }
%struct.AACDecProc = type { ptr, ptr, ptr, ptr, ptr, ptr }
%struct.DynamicRangeControl = type { i32, [17 x i32], [17 x i32], [64 x i32], i32, i32, [17 x i32], i32 }
%union.anon.0 = type { [1024 x i32] }
%union.anon.1 = type { [128 x i32] }
%union.anon.2 = type { ptr }
%struct.OutputConfiguration = type { %struct.MPEG4AudioConfig, [256 x [3 x i8]], i32, %struct.AVChannelLayout, i32, %struct.AACUSACConfig }
%struct.MPEG4AudioConfig = type { i32, i32, i32, i32, i32, i32, i32, i32, i32, i32, i32, i32 }
%struct.AACUSACConfig = type { i8, i16, i16, [64 x %struct.AACUsacElemConfig], i32, %struct.anon.6 }
%struct.AACUsacElemConfig = type { i32, i8, i8, %struct.anon, %struct.anon.4, %struct.anon.5 }
%struct.anon = type { i32, i8, %struct.anon.3 }
%struct.anon.3 = type { i8, i8, i8, i8, i8, i8, i8, i8 }
%struct.anon.4 = type { i8, i8, i8, i8, i8, i8, i8, i8, i8 }
%struct.anon.5 = type { i32, i8, i32, i32, ptr }
%struct.anon.6 = type { i8, i8, [64 x %struct.AACUSACLoudnessInfo], i8, i8, [64 x %struct.AACUSACLoudnessInfo] }
%struct.AACUSACLoudnessInfo = type <{ i16, %struct.anon.7, %struct.anon.8, i8, [16 x %struct.anon.9], i8 }>
%struct.anon.7 = type { i16 }
%struct.anon.8 = type { i32 }
%struct.anon.9 = type { i8, i8, i8 }
%struct.SingleChannelElement = type { %struct.IndividualChannelStream, %struct.AACUsacElemData, %struct.TemporalNoiseShaping, [128 x i32], [128 x i32], %union.anon.15, [12 x i8], %union.anon.16, %union.anon.17, %union.anon.18, %union.anon.19, %union.anon.20, %union.anon.21, %union.anon.22 }
%struct.IndividualChannelStream = type { i8, [2 x i32], [2 x i8], i32, i32, [8 x i8], %struct.LongTermPrediction, ptr, i32, i32, i32, i32, i32, i32, [41 x i8], [8 x i8] }
%struct.LongTermPrediction = type { i8, i16, %union.anon.10, [40 x i8] }
%union.anon.10 = type { i32 }
%struct.AACUsacElemData = type { i8, i8, i8, [16 x i8], %struct.anon.11, %struct.anon.12, %struct.anon.13, %struct.AACArithState }
%struct.anon.11 = type { i16, i32 }
%struct.anon.12 = type { i32, i8 }
%struct.anon.13 = type { i8, [8 x [8 x i32]] }
%struct.AACArithState = type { [513 x i8], i32, [4 x i8], i16 }
%struct.TemporalNoiseShaping = type { i32, [8 x i32], [8 x [4 x i32]], [8 x [4 x i32]], [8 x [4 x i32]], %union.anon.14 }
%union.anon.14 = type { [8 x [4 x [20 x i32]]] }
%union.anon.15 = type { [128 x i32] }
%union.anon.16 = type { [1024 x i32] }
%union.anon.17 = type { [1024 x i32] }
%union.anon.18 = type { [1536 x i32] }
%union.anon.19 = type { [2048 x i32] }
%union.anon.20 = type { [3072 x i32] }
%union.anon.21 = type { ptr }
%union.anon.22 = type { ptr }
%struct.AVFloatDSPContext = type { ptr, ptr, ptr, ptr, ptr, ptr, ptr, ptr, ptr, ptr, ptr, ptr }

@ff_aac_kbd_long_1024 = external global [1024 x float], align 16
@ff_sine_1024 = external global [1024 x float], align 16
@ff_aac_kbd_short_128 = external global [128 x float], align 16
@ff_sine_128 = external global [128 x float], align 16

; Function Attrs: nounwind uwtable
define internal void @update_ltp(ptr noundef %0, ptr noundef %1) #3 {
  %3 = alloca ptr, align 8
  %4 = alloca ptr, align 8
  %5 = alloca ptr, align 8
  %6 = alloca ptr, align 8
  %7 = alloca ptr, align 8
  %8 = alloca ptr, align 8
  %9 = alloca ptr, align 8
  %10 = alloca i32, align 4
  store ptr %0, ptr %3, align 8, !tbaa !29
  store ptr %1, ptr %4, align 8, !tbaa !66
  call void @llvm.lifetime.start.p0(i64 8, ptr %5) #11
  %11 = load ptr, ptr %4, align 8, !tbaa !66
  %12 = getelementptr inbounds nuw %struct.SingleChannelElement, ptr %11, i32 0, i32 0
  store ptr %12, ptr %5, align 8, !tbaa !68
  call void @llvm.lifetime.start.p0(i64 8, ptr %6) #11
  %13 = load ptr, ptr %4, align 8, !tbaa !66
  %14 = getelementptr inbounds nuw %struct.SingleChannelElement, ptr %13, i32 0, i32 9
  %15 = getelementptr inbounds [1536 x float], ptr %14, i64 0, i64 0
  store ptr %15, ptr %6, align 8, !tbaa !71
  call void @llvm.lifetime.start.p0(i64 8, ptr %7) #11
  %16 = load ptr, ptr %4, align 8, !tbaa !66
  %17 = getelementptr inbounds nuw %struct.SingleChannelElement, ptr %16, i32 0, i32 7
  %18 = getelementptr inbounds [1024 x float], ptr %17, i64 0, i64 0
  store ptr %18, ptr %7, align 8, !tbaa !71
  call void @llvm.lifetime.start.p0(i64 8, ptr %8) #11
  %19 = load ptr, ptr %5, align 8, !tbaa !68
  %20 = getelementptr inbounds nuw %struct.IndividualChannelStream, ptr %19, i32 0, i32 2
  %21 = getelementptr inbounds [2 x i8], ptr %20, i64 0, i64 0
  %22 = load i8, ptr %21, align 4, !tbaa !40
  %23 = zext i8 %22 to i32
  %24 = icmp ne i32 %23, 0
  %25 = select i1 %24, ptr @ff_aac_kbd_long_1024, ptr @ff_sine_1024
  store ptr %25, ptr %8, align 8, !tbaa !71
  call void @llvm.lifetime.start.p0(i64 8, ptr %9) #11
  %26 = load ptr, ptr %5, align 8, !tbaa !68
  %27 = getelementptr inbounds nuw %struct.IndividualChannelStream, ptr %26, i32 0, i32 2
  %28 = getelementptr inbounds [2 x i8], ptr %27, i64 0, i64 0
  %29 = load i8, ptr %28, align 4, !tbaa !40
  %30 = zext i8 %29 to i32
  %31 = icmp ne i32 %30, 0
  %32 = select i1 %31, ptr @ff_aac_kbd_short_128, ptr @ff_sine_128
  store ptr %32, ptr %9, align 8, !tbaa !71
  call void @llvm.lifetime.start.p0(i64 4, ptr %10) #11
  %33 = load ptr, ptr %5, align 8, !tbaa !68
  %34 = getelementptr inbounds nuw %struct.IndividualChannelStream, ptr %33, i32 0, i32 1
  %35 = getelementptr inbounds [2 x i32], ptr %34, i64 0, i64 0
  %36 = load i32, ptr %35, align 4, !tbaa !73
  %37 = icmp eq i32 %36, 2
  br i1 %37, label %38, label %83

38:                                               ; preds = %2
  %39 = load ptr, ptr %7, align 8, !tbaa !71
  %40 = load ptr, ptr %6, align 8, !tbaa !71
  call void @llvm.memcpy.p0.p0.i64(ptr align 4 %39, ptr align 4 %40, i64 2048, i1 false)
  %41 = load ptr, ptr %7, align 8, !tbaa !71
  %42 = getelementptr inbounds float, ptr %41, i64 576
  call void @llvm.memset.p0.i64(ptr align 4 %42, i8 0, i64 1792, i1 false)
  %43 = load ptr, ptr %3, align 8, !tbaa !29
  %44 = getelementptr inbounds nuw %struct.AACDecContext, ptr %43, i32 0, i32 32
  %45 = load ptr, ptr %44, align 16, !tbaa !40
  %46 = getelementptr inbounds nuw %struct.AVFloatDSPContext, ptr %45, i32 0, i32 7
  %47 = load ptr, ptr %46, align 8, !tbaa !130
  %48 = load ptr, ptr %7, align 8, !tbaa !71
  %49 = getelementptr inbounds float, ptr %48, i64 448
  %50 = load ptr, ptr %3, align 8, !tbaa !29
  %51 = getelementptr inbounds nuw %struct.AACDecContext, ptr %50, i32 0, i32 12
  %52 = getelementptr inbounds [1024 x float], ptr %51, i64 0, i64 0
  %53 = getelementptr inbounds float, ptr %52, i64 960
  %54 = load ptr, ptr %9, align 8, !tbaa !71
  %55 = getelementptr inbounds float, ptr %54, i64 64
  call void %47(ptr noundef %49, ptr noundef %53, ptr noundef %55, i32 noundef 64)
  store i32 0, ptr %10, align 4, !tbaa !73
  br label %56

56:                                               ; preds = %79, %38
  %57 = load i32, ptr %10, align 4, !tbaa !73
  %58 = icmp slt i32 %57, 64
  br i1 %58, label %59, label %82

59:                                               ; preds = %56
  %60 = load ptr, ptr %3, align 8, !tbaa !29
  %61 = getelementptr inbounds nuw %struct.AACDecContext, ptr %60, i32 0, i32 12
  %62 = load i32, ptr %10, align 4, !tbaa !73
  %63 = sub nsw i32 1023, %62
  %64 = sext i32 %63 to i64
  %65 = getelementptr inbounds [1024 x float], ptr %61, i64 0, i64 %64
  %66 = load float, ptr %65, align 4, !tbaa !40
  %67 = load ptr, ptr %9, align 8, !tbaa !71
  %68 = load i32, ptr %10, align 4, !tbaa !73
  %69 = sub nsw i32 63, %68
  %70 = sext i32 %69 to i64
  %71 = getelementptr inbounds float, ptr %67, i64 %70
  %72 = load float, ptr %71, align 4, !tbaa !79
  %73 = fmul nsz float %66, %72
  %74 = load ptr, ptr %7, align 8, !tbaa !71
  %75 = load i32, ptr %10, align 4, !tbaa !73
  %76 = add nsw i32 %75, 512
  %77 = sext i32 %76 to i64
  %78 = getelementptr inbounds float, ptr %74, i64 %77
  store float %73, ptr %78, align 4, !tbaa !79
  br label %79

79:                                               ; preds = %59
  %80 = load i32, ptr %10, align 4, !tbaa !73
  %81 = add nsw i32 %80, 1
  store i32 %81, ptr %10, align 4, !tbaa !73
  br label %56, !llvm.loop !131

82:                                               ; preds = %56
  br label %178

83:                                               ; preds = %2
  %84 = load ptr, ptr %5, align 8, !tbaa !68
  %85 = getelementptr inbounds nuw %struct.IndividualChannelStream, ptr %84, i32 0, i32 1
  %86 = getelementptr inbounds [2 x i32], ptr %85, i64 0, i64 0
  %87 = load i32, ptr %86, align 4, !tbaa !73
  %88 = icmp eq i32 %87, 1
  br i1 %88, label %89, label %137

89:                                               ; preds = %83
  %90 = load ptr, ptr %7, align 8, !tbaa !71
  %91 = load ptr, ptr %3, align 8, !tbaa !29
  %92 = getelementptr inbounds nuw %struct.AACDecContext, ptr %91, i32 0, i32 12
  %93 = getelementptr inbounds [1024 x float], ptr %92, i64 0, i64 0
  %94 = getelementptr inbounds float, ptr %93, i64 512
  call void @llvm.memcpy.p0.p0.i64(ptr align 4 %90, ptr align 4 %94, i64 1792, i1 false)
  %95 = load ptr, ptr %7, align 8, !tbaa !71
  %96 = getelementptr inbounds float, ptr %95, i64 576
  call void @llvm.memset.p0.i64(ptr align 4 %96, i8 0, i64 1792, i1 false)
  %97 = load ptr, ptr %3, align 8, !tbaa !29
  %98 = getelementptr inbounds nuw %struct.AACDecContext, ptr %97, i32 0, i32 32
  %99 = load ptr, ptr %98, align 16, !tbaa !40
  %100 = getelementptr inbounds nuw %struct.AVFloatDSPContext, ptr %99, i32 0, i32 7
  %101 = load ptr, ptr %100, align 8, !tbaa !130
  %102 = load ptr, ptr %7, align 8, !tbaa !71
  %103 = getelementptr inbounds float, ptr %102, i64 448
  %104 = load ptr, ptr %3, align 8, !tbaa !29
  %105 = getelementptr inbounds nuw %struct.AACDecContext, ptr %104, i32 0, i32 12
  %106 = getelementptr inbounds [1024 x float], ptr %105, i64 0, i64 0
  %107 = getelementptr inbounds float, ptr %106, i64 960
  %108 = load ptr, ptr %9, align 8, !tbaa !71
  %109 = getelementptr inbounds float, ptr %108, i64 64
  call void %101(ptr noundef %103, ptr noundef %107, ptr noundef %109, i32 noundef 64)
  store i32 0, ptr %10, align 4, !tbaa !73
  br label %110

110:                                              ; preds = %133, %89
  %111 = load i32, ptr %10, align 4, !tbaa !73
  %112 = icmp slt i32 %111, 64
  br i1 %112, label %113, label %136

113:                                              ; preds = %110
  %114 = load ptr, ptr %3, align 8, !tbaa !29
  %115 = getelementptr inbounds nuw %struct.AACDecContext, ptr %114, i32 0, i32 12
  %116 = load i32, ptr %10, align 4, !tbaa !73
  %117 = sub nsw i32 1023, %116
  %118 = sext i32 %117 to i64
  %119 = getelementptr inbounds [1024 x float], ptr %115, i64 0, i64 %118
  %120 = load float, ptr %119, align 4, !tbaa !40
  %121 = load ptr, ptr %9, align 8, !tbaa !71
  %122 = load i32, ptr %10, align 4, !tbaa !73
  %123 = sub nsw i32 63, %122
  %124 = sext i32 %123 to i64
  %125 = getelementptr inbounds float, ptr %121, i64 %124
  %126 = load float, ptr %125, align 4, !tbaa !79
  %127 = fmul nsz float %120, %126
  %128 = load ptr, ptr %7, align 8, !tbaa !71
  %129 = load i32, ptr %10, align 4, !tbaa !73
  %130 = add nsw i32 %129, 512
  %131 = sext i32 %130 to i64
  %132 = getelementptr inbounds float, ptr %128, i64 %131
  store float %127, ptr %132, align 4, !tbaa !79
  br label %133

133:                                              ; preds = %113
  %134 = load i32, ptr %10, align 4, !tbaa !73
  %135 = add nsw i32 %134, 1
  store i32 %135, ptr %10, align 4, !tbaa !73
  br label %110, !llvm.loop !132

136:                                              ; preds = %110
  br label %177

137:                                              ; preds = %83
  %138 = load ptr, ptr %3, align 8, !tbaa !29
  %139 = getelementptr inbounds nuw %struct.AACDecContext, ptr %138, i32 0, i32 32
  %140 = load ptr, ptr %139, align 16, !tbaa !40
  %141 = getelementptr inbounds nuw %struct.AVFloatDSPContext, ptr %140, i32 0, i32 7
  %142 = load ptr, ptr %141, align 8, !tbaa !130
  %143 = load ptr, ptr %7, align 8, !tbaa !71
  %144 = load ptr, ptr %3, align 8, !tbaa !29
  %145 = getelementptr inbounds nuw %struct.AACDecContext, ptr %144, i32 0, i32 12
  %146 = getelementptr inbounds [1024 x float], ptr %145, i64 0, i64 0
  %147 = getelementptr inbounds float, ptr %146, i64 512
  %148 = load ptr, ptr %8, align 8, !tbaa !71
  %149 = getelementptr inbounds float, ptr %148, i64 512
  call void %142(ptr noundef %143, ptr noundef %147, ptr noundef %149, i32 noundef 512)
  store i32 0, ptr %10, align 4, !tbaa !73
  br label %150

150:                                              ; preds = %173, %137
  %151 = load i32, ptr %10, align 4, !tbaa !73
  %152 = icmp slt i32 %151, 512
  br i1 %152, label %153, label %176

153:                                              ; preds = %150
  %154 = load ptr, ptr %3, align 8, !tbaa !29
  %155 = getelementptr inbounds nuw %struct.AACDecContext, ptr %154, i32 0, i32 12
  %156 = load i32, ptr %10, align 4, !tbaa !73
  %157 = sub nsw i32 1023, %156
  %158 = sext i32 %157 to i64
  %159 = getelementptr inbounds [1024 x float], ptr %155, i64 0, i64 %158
  %160 = load float, ptr %159, align 4, !tbaa !40
  %161 = load ptr, ptr %8, align 8, !tbaa !71
  %162 = load i32, ptr %10, align 4, !tbaa !73
  %163 = sub nsw i32 511, %162
  %164 = sext i32 %163 to i64
  %165 = getelementptr inbounds float, ptr %161, i64 %164
  %166 = load float, ptr %165, align 4, !tbaa !79
  %167 = fmul nsz float %160, %166
  %168 = load ptr, ptr %7, align 8, !tbaa !71
  %169 = load i32, ptr %10, align 4, !tbaa !73
  %170 = add nsw i32 %169, 512
  %171 = sext i32 %170 to i64
  %172 = getelementptr inbounds float, ptr %168, i64 %171
  store float %167, ptr %172, align 4, !tbaa !79
  br label %173

173:                                              ; preds = %153
  %174 = load i32, ptr %10, align 4, !tbaa !73
  %175 = add nsw i32 %174, 1
  store i32 %175, ptr %10, align 4, !tbaa !73
  br label %150, !llvm.loop !133

176:                                              ; preds = %150
  br label %177

177:                                              ; preds = %176, %136
  br label %178

178:                                              ; preds = %177, %82
  %179 = load ptr, ptr %4, align 8, !tbaa !66
  %180 = getelementptr inbounds nuw %struct.SingleChannelElement, ptr %179, i32 0, i32 11
  %181 = getelementptr inbounds [3072 x float], ptr %180, i64 0, i64 0
  %182 = load ptr, ptr %4, align 8, !tbaa !66
  %183 = getelementptr inbounds nuw %struct.SingleChannelElement, ptr %182, i32 0, i32 11
  %184 = getelementptr inbounds [3072 x float], ptr %183, i64 0, i64 0
  %185 = getelementptr inbounds float, ptr %184, i64 1024
  call void @llvm.memcpy.p0.p0.i64(ptr align 16 %181, ptr align 4 %185, i64 4096, i1 false)
  %186 = load ptr, ptr %4, align 8, !tbaa !66
  %187 = getelementptr inbounds nuw %struct.SingleChannelElement, ptr %186, i32 0, i32 11
  %188 = getelementptr inbounds [3072 x float], ptr %187, i64 0, i64 0
  %189 = getelementptr inbounds float, ptr %188, i64 1024
  %190 = load ptr, ptr %4, align 8, !tbaa !66
  %191 = getelementptr inbounds nuw %struct.SingleChannelElement, ptr %190, i32 0, i32 13
  %192 = load ptr, ptr %191, align 8, !tbaa !40
  call void @llvm.memcpy.p0.p0.i64(ptr align 4 %189, ptr align 4 %192, i64 4096, i1 false)
  %193 = load ptr, ptr %4, align 8, !tbaa !66
  %194 = getelementptr inbounds nuw %struct.SingleChannelElement, ptr %193, i32 0, i32 11
  %195 = getelementptr inbounds [3072 x float], ptr %194, i64 0, i64 0
  %196 = getelementptr inbounds float, ptr %195, i64 2048
  %197 = load ptr, ptr %7, align 8, !tbaa !71
  call void @llvm.memcpy.p0.p0.i64(ptr align 4 %196, ptr align 4 %197, i64 4096, i1 false)
  call void @llvm.lifetime.end.p0(i64 4, ptr %10) #11
  call void @llvm.lifetime.end.p0(i64 8, ptr %9) #11
  call void @llvm.lifetime.end.p0(i64 8, ptr %8) #11
  call void @llvm.lifetime.end.p0(i64 8, ptr %7) #11
  call void @llvm.lifetime.end.p0(i64 8, ptr %6) #11
  call void @llvm.lifetime.end.p0(i64 8, ptr %5) #11
  ret void
}