; Function Attrs: nounwind uwtable
define internal void @update_ltp(ptr noundef %0, ptr noundef %1) #3 {
  %3 = getelementptr inbounds nuw i8, ptr %1, i64 5520
  %4 = getelementptr inbounds nuw i8, ptr %1, i64 12
  %5 = load i8, ptr %4, align 4, !tbaa !58
  %.not = icmp eq i8 %5, 0
  %6 = select i1 %.not, ptr @ff_sine_1024, ptr @ff_aac_kbd_long_1024
  %7 = select i1 %.not, ptr @ff_sine_128, ptr @ff_aac_kbd_short_128
  %8 = getelementptr inbounds nuw i8, ptr %1, i64 4
  %9 = load i32, ptr %8, align 4, !tbaa !64
  switch i32 %9, label %48 [
    i32 2, label %10
    i32 1, label %29
  ]

10:                                               ; preds = %2
  %11 = getelementptr inbounds nuw i8, ptr %1, i64 13712
  tail call void @llvm.memcpy.p0.p0.i64(ptr noundef nonnull align 4 dereferenceable(2048) %3, ptr noundef nonnull align 4 dereferenceable(2048) %11, i64 2048, i1 false)
  %12 = getelementptr inbounds nuw i8, ptr %1, i64 7824
  tail call void @llvm.memset.p0.i64(ptr noundef nonnull align 4 dereferenceable(1792) %12, i8 0, i64 1792, i1 false)
  %13 = getelementptr inbounds nuw i8, ptr %0, i64 9536
  %14 = load ptr, ptr %13, align 16, !tbaa !58
  %15 = getelementptr inbounds nuw i8, ptr %14, i64 56
  %16 = load ptr, ptr %15, align 8, !tbaa !107
  %17 = getelementptr inbounds nuw i8, ptr %1, i64 7312
  %18 = getelementptr inbounds nuw i8, ptr %0, i64 4784
  %19 = getelementptr inbounds nuw i8, ptr %0, i64 8624
  %20 = select i1 %.not, ptr getelementptr inbounds nuw (i8, ptr @ff_sine_128, i64 256), ptr getelementptr inbounds nuw (i8, ptr @ff_aac_kbd_short_128, i64 256)
  tail call void %16(ptr noundef nonnull %17, ptr noundef nonnull %19, ptr noundef nonnull %20, i32 noundef 64) #12
  %invariant.gep58 = getelementptr inbounds nuw i8, ptr %1, i64 7568
  br label %21

21:                                               ; preds = %10, %21
  %indvars.iv67 = phi i64 [ 0, %10 ], [ %indvars.iv.next68, %21 ]
  %22 = sub nuw nsw i64 1023, %indvars.iv67
  %23 = getelementptr inbounds nuw [1024 x float], ptr %18, i64 0, i64 %22
  %24 = load float, ptr %23, align 4, !tbaa !58
  %25 = sub nuw nsw i64 63, %indvars.iv67
  %26 = getelementptr inbounds nuw float, ptr %7, i64 %25
  %27 = load float, ptr %26, align 4, !tbaa !65
  %28 = fmul nsz float %24, %27
  %gep59 = getelementptr inbounds nuw float, ptr %invariant.gep58, i64 %indvars.iv67
  store float %28, ptr %gep59, align 4, !tbaa !65
  %indvars.iv.next68 = add nuw nsw i64 %indvars.iv67, 1
  %exitcond70.not = icmp eq i64 %indvars.iv.next68, 64
  br i1 %exitcond70.not, label %.loopexit, label %21, !llvm.loop !114

29:                                               ; preds = %2
  %30 = getelementptr inbounds nuw i8, ptr %0, i64 4784
  %31 = getelementptr inbounds nuw i8, ptr %0, i64 6832
  tail call void @llvm.memcpy.p0.p0.i64(ptr noundef nonnull align 4 dereferenceable(1792) %3, ptr noundef nonnull align 4 dereferenceable(1792) %31, i64 1792, i1 false)
  %32 = getelementptr inbounds nuw i8, ptr %1, i64 7824
  tail call void @llvm.memset.p0.i64(ptr noundef nonnull align 4 dereferenceable(1792) %32, i8 0, i64 1792, i1 false)
  %33 = getelementptr inbounds nuw i8, ptr %0, i64 9536
  %34 = load ptr, ptr %33, align 16, !tbaa !58
  %35 = getelementptr inbounds nuw i8, ptr %34, i64 56
  %36 = load ptr, ptr %35, align 8, !tbaa !107
  %37 = getelementptr inbounds nuw i8, ptr %1, i64 7312
  %38 = getelementptr inbounds nuw i8, ptr %0, i64 8624
  %39 = select i1 %.not, ptr getelementptr inbounds nuw (i8, ptr @ff_sine_128, i64 256), ptr getelementptr inbounds nuw (i8, ptr @ff_aac_kbd_short_128, i64 256)
  tail call void %36(ptr noundef nonnull %37, ptr noundef nonnull %38, ptr noundef nonnull %39, i32 noundef 64) #12
  %invariant.gep = getelementptr inbounds nuw i8, ptr %1, i64 7568
  br label %40

40:                                               ; preds = %29, %40
  %indvars.iv = phi i64 [ 0, %29 ], [ %indvars.iv.next, %40 ]
  %41 = sub nuw nsw i64 1023, %indvars.iv
  %42 = getelementptr inbounds nuw [1024 x float], ptr %30, i64 0, i64 %41
  %43 = load float, ptr %42, align 4, !tbaa !58
  %44 = sub nuw nsw i64 63, %indvars.iv
  %45 = getelementptr inbounds nuw float, ptr %7, i64 %44
  %46 = load float, ptr %45, align 4, !tbaa !65
  %47 = fmul nsz float %43, %46
  %gep = getelementptr inbounds nuw float, ptr %invariant.gep, i64 %indvars.iv
  store float %47, ptr %gep, align 4, !tbaa !65
  %indvars.iv.next = add nuw nsw i64 %indvars.iv, 1
  %exitcond.not = icmp eq i64 %indvars.iv.next, 64
  br i1 %exitcond.not, label %.loopexit, label %40, !llvm.loop !115

48:                                               ; preds = %2
  %49 = getelementptr inbounds nuw i8, ptr %0, i64 9536
  %50 = load ptr, ptr %49, align 16, !tbaa !58
  %51 = getelementptr inbounds nuw i8, ptr %50, i64 56
  %52 = load ptr, ptr %51, align 8, !tbaa !107
  %53 = getelementptr inbounds nuw i8, ptr %0, i64 4784
  %54 = getelementptr inbounds nuw i8, ptr %0, i64 6832
  %55 = select i1 %.not, ptr getelementptr inbounds nuw (i8, ptr @ff_sine_1024, i64 2048), ptr getelementptr inbounds nuw (i8, ptr @ff_aac_kbd_long_1024, i64 2048)
  tail call void %52(ptr noundef nonnull %3, ptr noundef nonnull %54, ptr noundef nonnull %55, i32 noundef 512) #12
  %invariant.gep61 = getelementptr inbounds nuw i8, ptr %1, i64 7568
  br label %56

56:                                               ; preds = %48, %56
  %indvars.iv71 = phi i64 [ 0, %48 ], [ %indvars.iv.next72, %56 ]
  %57 = sub nuw nsw i64 1023, %indvars.iv71
  %58 = getelementptr inbounds nuw [1024 x float], ptr %53, i64 0, i64 %57
  %59 = load float, ptr %58, align 4, !tbaa !58
  %60 = sub nuw nsw i64 511, %indvars.iv71
  %61 = getelementptr inbounds nuw float, ptr %6, i64 %60
  %62 = load float, ptr %61, align 4, !tbaa !65
  %63 = fmul nsz float %59, %62
  %gep62 = getelementptr inbounds nuw float, ptr %invariant.gep61, i64 %indvars.iv71
  store float %63, ptr %gep62, align 4, !tbaa !65
  %indvars.iv.next72 = add nuw nsw i64 %indvars.iv71, 1
  %exitcond74.not = icmp eq i64 %indvars.iv.next72, 512
  br i1 %exitcond74.not, label %.loopexit, label %56, !llvm.loop !116

.loopexit:                                        ; preds = %40, %21, %56
  %64 = getelementptr inbounds nuw i8, ptr %1, i64 28048
  %65 = getelementptr inbounds nuw i8, ptr %1, i64 32144
  tail call void @llvm.memcpy.p0.p0.i64(ptr noundef nonnull align 16 dereferenceable(4096) %64, ptr noundef nonnull align 4 dereferenceable(4096) %65, i64 4096, i1 false)
  %66 = getelementptr inbounds nuw i8, ptr %1, i64 40344
  %67 = load ptr, ptr %66, align 8, !tbaa !58
  tail call void @llvm.memcpy.p0.p0.i64(ptr noundef nonnull align 4 dereferenceable(4096) %65, ptr noundef nonnull align 4 dereferenceable(4096) %67, i64 4096, i1 false)
  %68 = getelementptr inbounds nuw i8, ptr %1, i64 36240
  tail call void @llvm.memcpy.p0.p0.i64(ptr noundef nonnull align 4 dereferenceable(4096) %68, ptr noundef nonnull align 4 dereferenceable(4096) %3, i64 4096, i1 false)
  ret void
}